target datalayout = "e-m:e-p270:32:32-p271:32:32-p272:64:64-i64:64-i128:128-f80:128-n8:16:32:64-S128"
target triple = "x86_64-pc-linux-gnu"

%struct.nameData = type { [64 x i8] }
%struct.VacAttrStats = type { i32, i32, i32, ptr, i32, ptr, ptr, i32, ptr, i8, float, i32, float, [5 x i16], [5 x i32], [5 x i32], [5 x i32], [5 x ptr], [5 x i32], [5 x ptr], [5 x i32], [5 x i16], [5 x i8], [5 x i8], i32, ptr, ptr, ptr, ptr, i32 }
%struct.FormData_pg_type = type { i32, %struct.nameData, i32, i32, i16, i8, i8, i8, i8, i8, i8, i32, i32, i32, i32, i32, i32, i32, i32, i32, i32, i32, i8, i8, i8, i32, i32, i32, i32 }
%struct.HeapTupleData = type { i32, %struct.ItemPointerData, i32, ptr }
%struct.ItemPointerData = type { %struct.BlockIdData, i16 }
%struct.BlockIdData = type { i16, i16 }
%struct.HeapTupleHeaderData = type { %union.anon, %struct.ItemPointerData, i16, i16, i8, [0 x i8] }
%union.anon = type { %struct.HeapTupleFields }
%struct.HeapTupleFields = type { i32, i32, %union.anon.0 }
%union.anon.0 = type { i32 }

@CurrentMemoryContext = external global ptr, align 8
@.str.2 = private unnamed_addr constant [17 x i8] c"extended_stats.c\00", align 1
@.str.9 = private unnamed_addr constant [32 x i8] c"cache lookup failed for type %u\00", align 1
@__func__.examine_expression = private unnamed_addr constant [19 x i8] c"examine_expression\00", align 1

; Function Attrs: inlinehint nounwind uwtable
define internal zeroext i1 @DatumGetBool(i64 noundef %0) #3 {
  %2 = alloca i64, align 8
  store i64 %0, ptr %2, align 8
  %3 = load i64, ptr %2, align 8
  %4 = icmp ne i64 %3, 0
  ret i1 %4
}

; Function Attrs: inlinehint nounwind uwtable
define internal i64 @PointerGetDatum(ptr noundef %0) #3 {
  %2 = alloca ptr, align 8
  store ptr %0, ptr %2, align 8
  %3 = load ptr, ptr %2, align 8
  %4 = ptrtoint ptr %3 to i64
  ret i64 %4
}

; Function Attrs: inlinehint nounwind uwtable
define internal ptr @GETSTRUCT(ptr noundef %0) #3 {
  %2 = alloca ptr, align 8
  store ptr %0, ptr %2, align 8
  %3 = load ptr, ptr %2, align 8
  %4 = getelementptr inbounds nuw %struct.HeapTupleData, ptr %3, i32 0, i32 3
  %5 = load ptr, ptr %4, align 8
  %6 = load ptr, ptr %2, align 8
  %7 = getelementptr inbounds nuw %struct.HeapTupleData, ptr %6, i32 0, i32 3
  %8 = load ptr, ptr %7, align 8
  %9 = getelementptr inbounds nuw %struct.HeapTupleHeaderData, ptr %8, i32 0, i32 4
  %10 = load i8, ptr %9, align 2
  %11 = zext i8 %10 to i32
  %12 = sext i32 %11 to i64
  %13 = getelementptr inbounds i8, ptr %5, i64 %12
  ret ptr %13
}

; Function Attrs: inlinehint nounwind uwtable
define internal i64 @ObjectIdGetDatum(i32 noundef %0) #3 {
  %2 = alloca i32, align 4
  store i32 %0, ptr %2, align 4
  %3 = load i32, ptr %2, align 4
  %4 = zext i32 %3 to i64
  ret i64 %4
}

; Function Attrs: nounwind uwtable
define internal ptr @examine_expression(ptr noundef %0, i32 noundef %1) #0 {
  %3 = alloca ptr, align 8
  %4 = alloca ptr, align 8
  %5 = alloca i32, align 4
  %6 = alloca ptr, align 8
  %7 = alloca ptr, align 8
  %8 = alloca i32, align 4
  %9 = alloca i8, align 1
  %10 = alloca i32, align 4
  store ptr %0, ptr %4, align 8
  store i32 %1, ptr %5, align 4
  call void @llvm.lifetime.start.p0(i64 8, ptr %6) #8
  call void @llvm.lifetime.start.p0(i64 8, ptr %7) #8
  call void @llvm.lifetime.start.p0(i64 4, ptr %8) #8
  call void @llvm.lifetime.start.p0(i64 1, ptr %9) #8
  %11 = call ptr @palloc0(i64 noundef 344)
  store ptr %11, ptr %7, align 8
  %12 = load i32, ptr %5, align 4
  %13 = load ptr, ptr %7, align 8
  %14 = getelementptr inbounds nuw %struct.VacAttrStats, ptr %13, i32 0, i32 0
  store i32 %12, ptr %14, align 8
  %15 = load ptr, ptr %4, align 8
  %16 = call i32 @exprType(ptr noundef %15)
  %17 = load ptr, ptr %7, align 8
  %18 = getelementptr inbounds nuw %struct.VacAttrStats, ptr %17, i32 0, i32 1
  store i32 %16, ptr %18, align 4
  %19 = load ptr, ptr %4, align 8
  %20 = call i32 @exprTypmod(ptr noundef %19)
  %21 = load ptr, ptr %7, align 8
  %22 = getelementptr inbounds nuw %struct.VacAttrStats, ptr %21, i32 0, i32 2
  store i32 %20, ptr %22, align 8
  %23 = load ptr, ptr %4, align 8
  %24 = call i32 @exprCollation(ptr noundef %23)
  %25 = load ptr, ptr %7, align 8
  %26 = getelementptr inbounds nuw %struct.VacAttrStats, ptr %25, i32 0, i32 4
  store i32 %24, ptr %26, align 8
  %27 = load ptr, ptr %7, align 8
  %28 = getelementptr inbounds nuw %struct.VacAttrStats, ptr %27, i32 0, i32 1
  %29 = load i32, ptr %28, align 4
  %30 = call i64 @ObjectIdGetDatum(i32 noundef %29)
  %31 = call ptr @SearchSysCacheCopy(i32 noundef 82, i64 noundef %30, i64 noundef 0, i64 noundef 0, i64 noundef 0)
  store ptr %31, ptr %6, align 8
  %32 = load ptr, ptr %6, align 8
  %33 = icmp ne ptr %32, null
  br i1 %33, label %48, label %34

34:                                               ; preds = %2
  br label %35

35:                                               ; preds = %34
  br i1 true, label %36, label %38

36:                                               ; preds = %35
  %37 = call zeroext i1 @errstart_cold(i32 noundef 21, ptr noundef null) #9
  br i1 %37, label %40, label %45

38:                                               ; preds = %35
  %39 = call zeroext i1 @errstart(i32 noundef 21, ptr noundef null)
  br i1 %39, label %40, label %45

40:                                               ; preds = %38, %36
  %41 = load ptr, ptr %7, align 8
  %42 = getelementptr inbounds nuw %struct.VacAttrStats, ptr %41, i32 0, i32 1
  %43 = load i32, ptr %42, align 4
  %44 = call i32 (ptr, ...) @errmsg_internal(ptr noundef @.str.9, i32 noundef %43)
  call void @errfinish(ptr noundef @.str.2, i32 noundef 642, ptr noundef @__func__.examine_expression)
  br label %45

45:                                               ; preds = %40, %38, %36
  unreachable

46:                                               ; No predecessors!
  br label %47

47:                                               ; preds = %46
  br label %48

48:                                               ; preds = %47, %2
  %49 = load ptr, ptr %6, align 8
  %50 = call ptr @GETSTRUCT(ptr noundef %49)
  %51 = load ptr, ptr %7, align 8
  %52 = getelementptr inbounds nuw %struct.VacAttrStats, ptr %51, i32 0, i32 3
  store ptr %50, ptr %52, align 8
  %53 = load ptr, ptr @CurrentMemoryContext, align 8
  %54 = load ptr, ptr %7, align 8
  %55 = getelementptr inbounds nuw %struct.VacAttrStats, ptr %54, i32 0, i32 5
  store ptr %53, ptr %55, align 8
  %56 = load ptr, ptr %7, align 8
  %57 = getelementptr inbounds nuw %struct.VacAttrStats, ptr %56, i32 0, i32 24
  store i32 0, ptr %57, align 8
  store i32 0, ptr %8, align 4
  br label %58

58:                                               ; preds = %102, %48
  %59 = load i32, ptr %8, align 4
  %60 = icmp slt i32 %59, 5
  br i1 %60, label %61, label %105

61:                                               ; preds = %58
  %62 = load ptr, ptr %7, align 8
  %63 = getelementptr inbounds nuw %struct.VacAttrStats, ptr %62, i32 0, i32 1
  %64 = load i32, ptr %63, align 4
  %65 = load ptr, ptr %7, align 8
  %66 = getelementptr inbounds nuw %struct.VacAttrStats, ptr %65, i32 0, i32 20
  %67 = load i32, ptr %8, align 4
  %68 = sext i32 %67 to i64
  %69 = getelementptr inbounds [5 x i32], ptr %66, i64 0, i64 %68
  store i32 %64, ptr %69, align 4
  %70 = load ptr, ptr %7, align 8
  %71 = getelementptr inbounds nuw %struct.VacAttrStats, ptr %70, i32 0, i32 3
  %72 = load ptr, ptr %71, align 8
  %73 = getelementptr inbounds nuw %struct.FormData_pg_type, ptr %72, i32 0, i32 4
  %74 = load i16, ptr %73, align 4
  %75 = load ptr, ptr %7, align 8
  %76 = getelementptr inbounds nuw %struct.VacAttrStats, ptr %75, i32 0, i32 21
  %77 = load i32, ptr %8, align 4
  %78 = sext i32 %77 to i64
  %79 = getelementptr inbounds [5 x i16], ptr %76, i64 0, i64 %78
  store i16 %74, ptr %79, align 2
  %80 = load ptr, ptr %7, align 8
  %81 = getelementptr inbounds nuw %struct.VacAttrStats, ptr %80, i32 0, i32 3
  %82 = load ptr, ptr %81, align 8
  %83 = getelementptr inbounds nuw %struct.FormData_pg_type, ptr %82, i32 0, i32 5
  %84 = load i8, ptr %83, align 2, !range !6, !noundef !7
  %85 = trunc i8 %84 to i1
  %86 = load ptr, ptr %7, align 8
  %87 = getelementptr inbounds nuw %struct.VacAttrStats, ptr %86, i32 0, i32 22
  %88 = load i32, ptr %8, align 4
  %89 = sext i32 %88 to i64
  %90 = getelementptr inbounds [5 x i8], ptr %87, i64 0, i64 %89
  %91 = zext i1 %85 to i8
  store i8 %91, ptr %90, align 1
  %92 = load ptr, ptr %7, align 8
  %93 = getelementptr inbounds nuw %struct.VacAttrStats, ptr %92, i32 0, i32 3
  %94 = load ptr, ptr %93, align 8
  %95 = getelementptr inbounds nuw %struct.FormData_pg_type, ptr %94, i32 0, i32 22
  %96 = load i8, ptr %95, align 4
  %97 = load ptr, ptr %7, align 8
  %98 = getelementptr inbounds nuw %struct.VacAttrStats, ptr %97, i32 0, i32 23
  %99 = load i32, ptr %8, align 4
  %100 = sext i32 %99 to i64
  %101 = getelementptr inbounds [5 x i8], ptr %98, i64 0, i64 %100
  store i8 %96, ptr %101, align 1
  br label %102

102:                                              ; preds = %61
  %103 = load i32, ptr %8, align 4
  %104 = add i32 %103, 1
  store i32 %104, ptr %8, align 4
  br label %58, !llvm.loop !56

105:                                              ; preds = %58
  %106 = load ptr, ptr %7, align 8
  %107 = getelementptr inbounds nuw %struct.VacAttrStats, ptr %106, i32 0, i32 3
  %108 = load ptr, ptr %107, align 8
  %109 = getelementptr inbounds nuw %struct.FormData_pg_type, ptr %108, i32 0, i32 21
  %110 = load i32, ptr %109, align 4
  %111 = icmp ne i32 %110, 0
  br i1 %111, label %112, label %123

112:                                              ; preds = %105
  %113 = load ptr, ptr %7, align 8
  %114 = getelementptr inbounds nuw %struct.VacAttrStats, ptr %113, i32 0, i32 3
  %115 = load ptr, ptr %114, align 8
  %116 = getelementptr inbounds nuw %struct.FormData_pg_type, ptr %115, i32 0, i32 21
  %117 = load i32, ptr %116, align 4
  %118 = load ptr, ptr %7, align 8
  %119 = call i64 @PointerGetDatum(ptr noundef %118)
  %120 = call i64 @OidFunctionCall1Coll(i32 noundef %117, i32 noundef 0, i64 noundef %119)
  %121 = call zeroext i1 @DatumGetBool(i64 noundef %120)
  %122 = zext i1 %121 to i8
  store i8 %122, ptr %9, align 1
  br label %127

123:                                              ; preds = %105
  %124 = load ptr, ptr %7, align 8
  %125 = call zeroext i1 @std_typanalyze(ptr noundef %124)
  %126 = zext i1 %125 to i8
  store i8 %126, ptr %9, align 1
  br label %127

127:                                              ; preds = %123, %112
  %128 = load i8, ptr %9, align 1, !range !6, !noundef !7
  %129 = trunc i8 %128 to i1
  br i1 %129, label %130, label %140

130:                                              ; preds = %127
  %131 = load ptr, ptr %7, align 8
  %132 = getelementptr inbounds nuw %struct.VacAttrStats, ptr %131, i32 0, i32 6
  %133 = load ptr, ptr %132, align 8
  %134 = icmp eq ptr %133, null
  br i1 %134, label %140, label %135

135:                                              ; preds = %130
  %136 = load ptr, ptr %7, align 8
  %137 = getelementptr inbounds nuw %struct.VacAttrStats, ptr %136, i32 0, i32 7
  %138 = load i32, ptr %137, align 8
  %139 = icmp sle i32 %138, 0
  br i1 %139, label %140, label %143

140:                                              ; preds = %135, %130, %127
  %141 = load ptr, ptr %6, align 8
  call void @heap_freetuple(ptr noundef %141)
  %142 = load ptr, ptr %7, align 8
  call void @pfree(ptr noundef %142)
  store ptr null, ptr %3, align 8
  store i32 1, ptr %10, align 4
  br label %145

143:                                              ; preds = %135
  %144 = load ptr, ptr %7, align 8
  store ptr %144, ptr %3, align 8
  store i32 1, ptr %10, align 4
  br label %145

145:                                              ; preds = %143, %140
  call void @llvm.lifetime.end.p0(i64 1, ptr %9) #8
  call void @llvm.lifetime.end.p0(i64 4, ptr %8) #8
  call void @llvm.lifetime.end.p0(i64 8, ptr %7) #8
  call void @llvm.lifetime.end.p0(i64 8, ptr %6) #8
  %146 = load ptr, ptr %3, align 8
  ret ptr %146
}