; Function Attrs: nounwind uwtable
define internal fastcc noundef ptr @examine_expression(ptr noundef %0, i32 noundef range(i32 1, 0) %1) unnamed_addr #0 {
  %3 = tail call ptr @palloc0(i64 noundef 344) #10
  store i32 %1, ptr %3, align 8
  %4 = tail call i32 @exprType(ptr noundef %0) #10
  %5 = getelementptr inbounds nuw i8, ptr %3, i64 4
  store i32 %4, ptr %5, align 4
  %6 = tail call i32 @exprTypmod(ptr noundef %0) #10
  %7 = getelementptr inbounds nuw i8, ptr %3, i64 8
  store i32 %6, ptr %7, align 8
  %8 = tail call i32 @exprCollation(ptr noundef %0) #10
  %9 = getelementptr inbounds nuw i8, ptr %3, i64 24
  store i32 %8, ptr %9, align 8
  %10 = load i32, ptr %5, align 4
  %11 = zext i32 %10 to i64
  %12 = tail call ptr @SearchSysCacheCopy(i32 noundef 82, i64 noundef %11, i64 noundef 0, i64 noundef 0, i64 noundef 0) #10
  %.not = icmp eq ptr %12, null
  br i1 %.not, label %13, label %17

13:                                               ; preds = %2
  %14 = tail call zeroext i1 @errstart_cold(i32 noundef 21, ptr noundef null) #11
  tail call void @llvm.assume(i1 %14)
  %15 = load i32, ptr %5, align 4
  %16 = tail call i32 (ptr, ...) @errmsg_internal(ptr noundef nonnull @.str.9, i32 noundef %15) #10
  tail call void @errfinish(ptr noundef nonnull @.str.2, i32 noundef 642, ptr noundef nonnull @__func__.examine_expression) #10
  unreachable

17:                                               ; preds = %2
  %18 = getelementptr i8, ptr %12, i64 16
  %.val = load ptr, ptr %18, align 8
  %19 = getelementptr inbounds nuw i8, ptr %.val, i64 22
  %20 = load i8, ptr %19, align 2
  %21 = zext i8 %20 to i64
  %22 = getelementptr inbounds nuw i8, ptr %.val, i64 %21
  %23 = getelementptr inbounds nuw i8, ptr %3, i64 16
  store ptr %22, ptr %23, align 8
  %24 = load ptr, ptr @CurrentMemoryContext, align 8
  %25 = getelementptr inbounds nuw i8, ptr %3, i64 32
  store ptr %24, ptr %25, align 8
  %26 = getelementptr inbounds nuw i8, ptr %3, i64 296
  store i32 0, ptr %26, align 8
  %27 = load i32, ptr %5, align 4
  %28 = getelementptr inbounds nuw i8, ptr %3, i64 256
  %29 = getelementptr inbounds nuw i8, ptr %3, i64 276
  %30 = getelementptr inbounds nuw i8, ptr %3, i64 286
  %31 = getelementptr inbounds nuw i8, ptr %3, i64 291
  %32 = getelementptr inbounds nuw i8, ptr %22, i64 76
  %33 = getelementptr inbounds nuw i8, ptr %22, i64 78
  %34 = getelementptr inbounds nuw i8, ptr %22, i64 128
  br label %35

35:                                               ; preds = %17, %35
  %indvars.iv = phi i64 [ 0, %17 ], [ %indvars.iv.next, %35 ]
  %36 = getelementptr inbounds nuw [5 x i32], ptr %28, i64 0, i64 %indvars.iv
  store i32 %27, ptr %36, align 4
  %37 = load i16, ptr %32, align 4
  %38 = getelementptr inbounds nuw [5 x i16], ptr %29, i64 0, i64 %indvars.iv
  store i16 %37, ptr %38, align 2
  %39 = load i8, ptr %33, align 2, !range !8, !noundef !9
  %40 = getelementptr inbounds nuw [5 x i8], ptr %30, i64 0, i64 %indvars.iv
  store i8 %39, ptr %40, align 1
  %41 = load i8, ptr %34, align 4
  %42 = getelementptr inbounds nuw [5 x i8], ptr %31, i64 0, i64 %indvars.iv
  store i8 %41, ptr %42, align 1
  %indvars.iv.next = add nuw nsw i64 %indvars.iv, 1
  %exitcond.not = icmp eq i64 %indvars.iv.next, 5
  br i1 %exitcond.not, label %43, label %35, !llvm.loop !40

43:                                               ; preds = %35
  %44 = getelementptr inbounds nuw i8, ptr %22, i64 124
  %45 = load i32, ptr %44, align 4
  %.not43 = icmp eq i32 %45, 0
  br i1 %.not43, label %49, label %46

46:                                               ; preds = %43
  %47 = ptrtoint ptr %3 to i64
  %48 = tail call i64 @OidFunctionCall1Coll(i32 noundef %45, i32 noundef 0, i64 noundef %47) #10
  %.not44 = icmp eq i64 %48, 0
  br i1 %.not44, label %59, label %51

49:                                               ; preds = %43
  %50 = tail call zeroext i1 @std_typanalyze(ptr noundef nonnull %3) #10
  br i1 %50, label %51, label %59

51:                                               ; preds = %46, %49
  %52 = getelementptr inbounds nuw i8, ptr %3, i64 40
  %53 = load ptr, ptr %52, align 8
  %54 = icmp eq ptr %53, null
  br i1 %54, label %59, label %55

55:                                               ; preds = %51
  %56 = getelementptr inbounds nuw i8, ptr %3, i64 48
  %57 = load i32, ptr %56, align 8
  %58 = icmp slt i32 %57, 1
  br i1 %58, label %59, label %60

59:                                               ; preds = %46, %55, %51, %49
  tail call void @heap_freetuple(ptr noundef nonnull %12) #10
  tail call void @pfree(ptr noundef nonnull %3) #10
  br label %60

60:                                               ; preds = %55, %59
  %.040 = phi ptr [ null, %59 ], [ %3, %55 ]
  ret ptr %.040
}